target datalayout = "e-m:e-p270:32:32-p271:32:32-p272:64:64-i64:64-i128:128-f80:128-n8:16:32:64-S128"
target triple = "x86_64-pc-linux-gnu"

%struct.LUT = type { ptr, ptr, i32, i32, i32, i32, i32, i32 }

; Function Attrs: nounwind uwtable
define internal void @free_lut(ptr noundef %0) #0 {
  %2 = alloca ptr, align 8
  %3 = alloca i32, align 4
  %4 = alloca i32, align 4
  %5 = alloca i32, align 4
  %6 = alloca i32, align 4
  %7 = alloca i32, align 4
  store ptr %0, ptr %2, align 8, !tbaa !152
  call void @llvm.lifetime.start.p0(i64 4, ptr %3) #12
  %8 = load ptr, ptr %2, align 8, !tbaa !152
  %9 = getelementptr inbounds nuw %struct.LUT, ptr %8, i32 0, i32 2
  %10 = load i32, ptr %9, align 8, !tbaa !156
  %11 = icmp sgt i32 %10, 0
  br i1 %11, label %12, label %16

12:                                               ; preds = %1
  %13 = load ptr, ptr %2, align 8, !tbaa !152
  %14 = getelementptr inbounds nuw %struct.LUT, ptr %13, i32 0, i32 2
  %15 = load i32, ptr %14, align 8, !tbaa !156
  br label %17

16:                                               ; preds = %1
  br label %17

17:                                               ; preds = %16, %12
  %18 = phi i32 [ %15, %12 ], [ 0, %16 ]
  store i32 %18, ptr %3, align 4, !tbaa !24
  call void @llvm.lifetime.start.p0(i64 4, ptr %4) #12
  %19 = load i32, ptr %3, align 4, !tbaa !24
  %20 = load ptr, ptr %2, align 8, !tbaa !152
  %21 = getelementptr inbounds nuw %struct.LUT, ptr %20, i32 0, i32 3
  %22 = load i32, ptr %21, align 4, !tbaa !160
  %23 = load ptr, ptr %2, align 8, !tbaa !152
  %24 = getelementptr inbounds nuw %struct.LUT, ptr %23, i32 0, i32 2
  %25 = load i32, ptr %24, align 8, !tbaa !156
  %26 = sub nsw i32 %22, %25
  %27 = add nsw i32 %19, %26
  store i32 %27, ptr %4, align 4, !tbaa !24
  %28 = load ptr, ptr %2, align 8, !tbaa !152
  %29 = getelementptr inbounds nuw %struct.LUT, ptr %28, i32 0, i32 1
  %30 = load ptr, ptr %29, align 8, !tbaa !171
  %31 = icmp ne ptr %30, null
  br i1 %31, label %33, label %32

32:                                               ; preds = %17
  store i32 1, ptr %5, align 4
  br label %114

33:                                               ; preds = %17
  call void @llvm.lifetime.start.p0(i64 4, ptr %6) #12
  %34 = load i32, ptr %3, align 4, !tbaa !24
  store i32 %34, ptr %6, align 4, !tbaa !24
  br label %35

35:                                               ; preds = %105, %33
  %36 = load i32, ptr %6, align 4, !tbaa !24
  %37 = load i32, ptr %4, align 4, !tbaa !24
  %38 = icmp sle i32 %36, %37
  br i1 %38, label %40, label %39

39:                                               ; preds = %35
  store i32 2, ptr %5, align 4
  br label %108

40:                                               ; preds = %35
  %41 = load ptr, ptr %2, align 8, !tbaa !152
  %42 = getelementptr inbounds nuw %struct.LUT, ptr %41, i32 0, i32 1
  %43 = load ptr, ptr %42, align 8, !tbaa !171
  %44 = load i32, ptr %6, align 4, !tbaa !24
  %45 = sext i32 %44 to i64
  %46 = getelementptr inbounds ptr, ptr %43, i64 %45
  %47 = load ptr, ptr %46, align 8, !tbaa !163
  %48 = icmp ne ptr %47, null
  br i1 %48, label %50, label %49

49:                                               ; preds = %40
  store i32 2, ptr %5, align 4
  br label %108

50:                                               ; preds = %40
  call void @llvm.lifetime.start.p0(i64 4, ptr %7) #12
  store i32 0, ptr %7, align 4, !tbaa !24
  br label %51

51:                                               ; preds = %94, %50
  %52 = load i32, ptr %7, align 4, !tbaa !24
  %53 = load ptr, ptr %2, align 8, !tbaa !152
  %54 = getelementptr inbounds nuw %struct.LUT, ptr %53, i32 0, i32 4
  %55 = load i32, ptr %54, align 8, !tbaa !167
  %56 = icmp slt i32 %52, %55
  br i1 %56, label %58, label %57

57:                                               ; preds = %51
  store i32 5, ptr %5, align 4
  br label %97

58:                                               ; preds = %51
  %59 = load ptr, ptr %2, align 8, !tbaa !152
  %60 = getelementptr inbounds nuw %struct.LUT, ptr %59, i32 0, i32 1
  %61 = load ptr, ptr %60, align 8, !tbaa !171
  %62 = load i32, ptr %6, align 4, !tbaa !24
  %63 = sext i32 %62 to i64
  %64 = getelementptr inbounds ptr, ptr %61, i64 %63
  %65 = load ptr, ptr %64, align 8, !tbaa !163
  %66 = load i32, ptr %7, align 4, !tbaa !24
  %67 = sext i32 %66 to i64
  %68 = getelementptr inbounds ptr, ptr %65, i64 %67
  %69 = load ptr, ptr %68, align 8, !tbaa !72
  %70 = icmp ne ptr %69, null
  br i1 %70, label %72, label %71

71:                                               ; preds = %58
  store i32 5, ptr %5, align 4
  br label %97

72:                                               ; preds = %58
  %73 = load ptr, ptr %2, align 8, !tbaa !152
  %74 = getelementptr inbounds nuw %struct.LUT, ptr %73, i32 0, i32 1
  %75 = load ptr, ptr %74, align 8, !tbaa !171
  %76 = load i32, ptr %6, align 4, !tbaa !24
  %77 = sext i32 %76 to i64
  %78 = getelementptr inbounds ptr, ptr %75, i64 %77
  %79 = load ptr, ptr %78, align 8, !tbaa !163
  %80 = load i32, ptr %7, align 4, !tbaa !24
  %81 = sext i32 %80 to i64
  %82 = getelementptr inbounds ptr, ptr %79, i64 %81
  %83 = load ptr, ptr %82, align 8, !tbaa !72
  %84 = load ptr, ptr %2, align 8, !tbaa !152
  %85 = getelementptr inbounds nuw %struct.LUT, ptr %84, i32 0, i32 6
  %86 = load i32, ptr %85, align 8, !tbaa !169
  %87 = load ptr, ptr %2, align 8, !tbaa !152
  %88 = getelementptr inbounds nuw %struct.LUT, ptr %87, i32 0, i32 7
  %89 = load i32, ptr %88, align 4, !tbaa !164
  %90 = mul nsw i32 %86, %89
  %91 = sext i32 %90 to i64
  %92 = sub i64 0, %91
  %93 = getelementptr inbounds i8, ptr %83, i64 %92
  call void @av_free(ptr noundef %93)
  br label %94

94:                                               ; preds = %72
  %95 = load i32, ptr %7, align 4, !tbaa !24
  %96 = add nsw i32 %95, 1
  store i32 %96, ptr %7, align 4, !tbaa !24
  br label %51, !llvm.loop !172

97:                                               ; preds = %71, %57
  call void @llvm.lifetime.end.p0(i64 4, ptr %7) #12
  br label %98

98:                                               ; preds = %97
  %99 = load ptr, ptr %2, align 8, !tbaa !152
  %100 = getelementptr inbounds nuw %struct.LUT, ptr %99, i32 0, i32 1
  %101 = load ptr, ptr %100, align 8, !tbaa !171
  %102 = load i32, ptr %6, align 4, !tbaa !24
  %103 = sext i32 %102 to i64
  %104 = getelementptr inbounds ptr, ptr %101, i64 %103
  call void @av_freep(ptr noundef %104)
  br label %105

105:                                              ; preds = %98
  %106 = load i32, ptr %6, align 4, !tbaa !24
  %107 = add nsw i32 %106, 1
  store i32 %107, ptr %6, align 4, !tbaa !24
  br label %35, !llvm.loop !173

108:                                              ; preds = %49, %39
  call void @llvm.lifetime.end.p0(i64 4, ptr %6) #12
  br label %109

109:                                              ; preds = %108
  %110 = load ptr, ptr %2, align 8, !tbaa !152
  %111 = getelementptr inbounds nuw %struct.LUT, ptr %110, i32 0, i32 1
  call void @av_freep(ptr noundef %111)
  %112 = load ptr, ptr %2, align 8, !tbaa !152
  %113 = getelementptr inbounds nuw %struct.LUT, ptr %112, i32 0, i32 0
  store ptr null, ptr %113, align 8, !tbaa !162
  store i32 0, ptr %5, align 4
  br label %114

114:                                              ; preds = %109, %32
  call void @llvm.lifetime.end.p0(i64 4, ptr %4) #12
  call void @llvm.lifetime.end.p0(i64 4, ptr %3) #12
  %115 = load i32, ptr %5, align 4
  switch i32 %115, label %117 [
    i32 0, label %116
    i32 1, label %116
  ]

116:                                              ; preds = %114, %114
  ret void

117:                                              ; preds = %114
  unreachable
}