; Function Attrs: nounwind uwtable
define internal fastcc void @free_lut(ptr noundef %0) unnamed_addr #0 {
  %2 = getelementptr inbounds nuw i8, ptr %0, i64 16
  %3 = load i32, ptr %2, align 8, !tbaa !135
  %spec.select = tail call i32 @llvm.smax.i32(i32 %3, i32 0)
  %4 = getelementptr inbounds nuw i8, ptr %0, i64 20
  %5 = load i32, ptr %4, align 4, !tbaa !139
  %6 = sub i32 %5, %3
  %7 = add nsw i32 %6, %spec.select
  %8 = getelementptr inbounds nuw i8, ptr %0, i64 8
  %9 = load ptr, ptr %8, align 8, !tbaa !153
  %.not = icmp eq ptr %9, null
  br i1 %.not, label %38, label %.preheader32

.preheader32:                                     ; preds = %1
  %.not2935 = icmp slt i32 %6, 0
  br i1 %.not2935, label %._crit_edge38, label %.lr.ph37

.lr.ph37:                                         ; preds = %.preheader32
  %10 = getelementptr inbounds nuw i8, ptr %0, i64 24
  %11 = getelementptr inbounds nuw i8, ptr %0, i64 32
  %12 = getelementptr inbounds nuw i8, ptr %0, i64 36
  %13 = zext nneg i32 %spec.select to i64
  %14 = zext nneg i32 %7 to i64
  br label %15

15:                                               ; preds = %.lr.ph37, %._crit_edge
  %indvars.iv41 = phi i64 [ %13, %.lr.ph37 ], [ %indvars.iv.next42, %._crit_edge ]
  %16 = load ptr, ptr %8, align 8, !tbaa !153
  %17 = getelementptr inbounds nuw ptr, ptr %16, i64 %indvars.iv41
  %18 = load ptr, ptr %17, align 8, !tbaa !142
  %.not30 = icmp eq ptr %18, null
  br i1 %.not30, label %._crit_edge38, label %.preheader

.preheader:                                       ; preds = %15
  %19 = load i32, ptr %10, align 8, !tbaa !150
  %20 = icmp sgt i32 %19, 0
  br i1 %20, label %.lr.ph, label %._crit_edge

.lr.ph:                                           ; preds = %.preheader, %26
  %indvars.iv = phi i64 [ %indvars.iv.next, %26 ], [ 0, %.preheader ]
  %21 = load ptr, ptr %8, align 8, !tbaa !153
  %22 = getelementptr inbounds nuw ptr, ptr %21, i64 %indvars.iv41
  %23 = load ptr, ptr %22, align 8, !tbaa !142
  %24 = getelementptr inbounds nuw ptr, ptr %23, i64 %indvars.iv
  %25 = load ptr, ptr %24, align 8, !tbaa !68
  %.not31 = icmp eq ptr %25, null
  br i1 %.not31, label %._crit_edge, label %26

26:                                               ; preds = %.lr.ph
  %27 = load i32, ptr %11, align 8, !tbaa !152
  %28 = load i32, ptr %12, align 4, !tbaa !143
  %29 = mul nsw i32 %28, %27
  %30 = sext i32 %29 to i64
  %31 = sub nsw i64 0, %30
  %32 = getelementptr inbounds i8, ptr %25, i64 %31
  tail call void @av_free(ptr noundef nonnull %32) #14
  %indvars.iv.next = add nuw nsw i64 %indvars.iv, 1
  %33 = load i32, ptr %10, align 8, !tbaa !150
  %34 = sext i32 %33 to i64
  %35 = icmp slt i64 %indvars.iv.next, %34
  br i1 %35, label %.lr.ph, label %.._crit_edge.loopexit_crit_edge, !llvm.loop !157

.._crit_edge.loopexit_crit_edge:                  ; preds = %26
  %.pre.pre = load ptr, ptr %8, align 8, !tbaa !153
  br label %._crit_edge, !llvm.loop !157

._crit_edge:                                      ; preds = %.lr.ph, %.._crit_edge.loopexit_crit_edge, %.preheader
  %36 = phi ptr [ %16, %.preheader ], [ %.pre.pre, %.._crit_edge.loopexit_crit_edge ], [ %21, %.lr.ph ]
  %37 = getelementptr inbounds nuw ptr, ptr %36, i64 %indvars.iv41
  tail call void @av_freep(ptr noundef %37) #14
  %indvars.iv.next42 = add nuw nsw i64 %indvars.iv41, 1
  %.not29.not = icmp samesign ult i64 %indvars.iv41, %14
  br i1 %.not29.not, label %15, label %._crit_edge38, !llvm.loop !158

._crit_edge38:                                    ; preds = %._crit_edge, %15, %.preheader32
  tail call void @av_freep(ptr noundef nonnull %8) #14
  store ptr null, ptr %0, align 8, !tbaa !141
  br label %38

38:                                               ; preds = %1, %._crit_edge38
  ret void
}